; Function Attrs: mustprogress nofree norecurse nosync nounwind willreturn memory(readwrite, inaccessiblemem: none) uwtable
define hidden void @_ZN3smt6theory12pop_scope_ehEj(ptr noundef nonnull readonly align 8 captures(none) dereferenceable(53) %0, i32 noundef %1) unnamed_addr #6 align 2 {
  %3 = getelementptr inbounds nuw i8, ptr %0, i64 40
  %4 = load ptr, ptr %3, align 8, !tbaa !12
  %5 = icmp eq ptr %4, null
  br i1 %5, label %_ZNK6vectorIjLb0EjE4sizeEv.exit, label %6

6:                                                ; preds = %2
  %7 = getelementptr inbounds i8, ptr %4, i64 -4
  %8 = load i32, ptr %7, align 4, !tbaa !10
  br label %_ZNK6vectorIjLb0EjE4sizeEv.exit

_ZNK6vectorIjLb0EjE4sizeEv.exit:                  ; preds = %2, %6
  %.0.i = phi i32 [ %8, %6 ], [ 0, %2 ]
  %9 = sub i32 %.0.i, %1
  %10 = getelementptr inbounds nuw i8, ptr %0, i64 32
  %11 = load ptr, ptr %10, align 8, !tbaa !3
  %.not.i = icmp eq ptr %11, null
  br i1 %.not.i, label %_ZN6vectorIjLb0EjE6shrinkEj.exit, label %12

12:                                               ; preds = %_ZNK6vectorIjLb0EjE4sizeEv.exit
  %13 = zext i32 %9 to i64
  %14 = getelementptr inbounds nuw i32, ptr %4, i64 %13
  %15 = load i32, ptr %14, align 4, !tbaa !10
  %16 = getelementptr inbounds i8, ptr %11, i64 -4
  store i32 %15, ptr %16, align 4, !tbaa !10
  br label %_ZN6vectorIjLb0EjE6shrinkEj.exit

_ZN6vectorIjLb0EjE6shrinkEj.exit:                 ; preds = %_ZNK6vectorIjLb0EjE4sizeEv.exit, %12
  %17 = getelementptr inbounds i8, ptr %4, i64 -4
  store i32 %9, ptr %17, align 4, !tbaa !10
  ret void
}